Archive member included to satisfy reference by file (symbol)

c:/myx/sysgcc/bin/../lib/gcc/riscv64-unknown-elf/10.1.0/rv32imac/ilp32\libgcc.a(addsf3.o)
                              Common/CMakeFiles/Common.dir/test.c.obj (__addsf3)
c:/myx/sysgcc/bin/../lib/gcc/riscv64-unknown-elf/10.1.0/rv32imac/ilp32\libgcc.a(mulsf3.o)
                              Common/CMakeFiles/Common.dir/test.c.obj (__mulsf3)
c:/myx/sysgcc/bin/../lib/gcc/riscv64-unknown-elf/10.1.0/rv32imac/ilp32\libgcc.a(floatsisf.o)
                              Common/CMakeFiles/Common.dir/test.c.obj (__floatsisf)
c:/myx/sysgcc/bin/../lib/gcc/riscv64-unknown-elf/10.1.0/rv32imac/ilp32\libgcc.a(floatunsisf.o)
                              Common/CMakeFiles/Common.dir/test.c.obj (__floatunsisf)
c:/myx/sysgcc/bin/../lib/gcc/riscv64-unknown-elf/10.1.0/rv32imac/ilp32\libgcc.a(_clzsi2.o)
                              c:/myx/sysgcc/bin/../lib/gcc/riscv64-unknown-elf/10.1.0/rv32imac/ilp32\libgcc.a(addsf3.o) (__clzsi2)
c:/myx/sysgcc/bin/../lib/gcc/riscv64-unknown-elf/10.1.0/rv32imac/ilp32\libgcc.a(_clz.o)
                              c:/myx/sysgcc/bin/../lib/gcc/riscv64-unknown-elf/10.1.0/rv32imac/ilp32\libgcc.a(_clzsi2.o) (__clz_tab)

Memory Configuration

Name             Origin             Length             Attributes
FLASH            0x0000000020400000 0x0000000020000000 axrl !w
RAM              0x0000000080000000 0x0000000000004000 axw !rl
*default*        0x0000000000000000 0xffffffffffffffff

Linker script and memory map

LOAD Common/CMakeFiles/Common.dir/main.c.obj
LOAD Common/CMakeFiles/Common.dir/test.c.obj
LOAD CMakeFiles/sample.elf.dir/startup.c.obj
LOAD CMakeFiles/sample.elf.dir/vector.s.obj
LOAD c:/myx/sysgcc/bin/../lib/gcc/riscv64-unknown-elf/10.1.0/rv32imac/ilp32\libgcc.a
START GROUP
LOAD c:/myx/sysgcc/bin/../lib/gcc/riscv64-unknown-elf/10.1.0/../../../../riscv64-unknown-elf/lib/rv32imac/ilp32\libc.a
LOAD c:/myx/sysgcc/bin/../lib/gcc/riscv64-unknown-elf/10.1.0/../../../../riscv64-unknown-elf/lib/rv32imac/ilp32\libgloss.a
END GROUP
LOAD c:/myx/sysgcc/bin/../lib/gcc/riscv64-unknown-elf/10.1.0/rv32imac/ilp32\libgcc.a

.text           0x0000000020400000     0x1928
                0x0000000020400000                _start_text = .
 *(.init)
 .init          0x0000000020400000       0x62 CMakeFiles/sample.elf.dir/startup.c.obj
                0x0000000020400000                _reset
                0x0000000020400100                . = (ORIGIN (FLASH) + 0x100)
 *fill*         0x0000000020400062       0x9e 
                0x0000000020400100                _start_vector = .
 *(.isr_vector)
 .isr_vector    0x0000000020400100      0x672 CMakeFiles/sample.elf.dir/vector.s.obj
                0x0000000020400100                IV
 *(.text*)
 .text          0x0000000020400772       0x68 Common/CMakeFiles/Common.dir/main.c.obj
                0x0000000020400772                main
 .text          0x00000000204007da      0x872 Common/CMakeFiles/Common.dir/test.c.obj
                0x00000000204007da                Type_Simple
                0x00000000204008b2                Type_Float
                0x000000002040090e                Type_Arrays
                0x00000000204009e8                Type_Pointers
                0x0000000020400a5a                Type_Struct
                0x0000000020400af6                Type_Bitfields
                0x0000000020400b5e                Type_Enum
                0x0000000020400bb2                Mult
                0x0000000020400bd4                Type_FunctionPointer
                0x0000000020400c34                ResetStrX
                0x0000000020400c86                Type_Mixed
                0x0000000020400ccc                TestStatic
                0x0000000020400cf2                Address_GlobalVariables
                0x0000000020400d20                Address_TestScopes
                0x0000000020400dd6                Func1
                0x0000000020400e10                Func2
                0x0000000020400e6e                Func3
                0x0000000020400e88                Func4
                0x0000000020400f2e                Address_DifferentFunctionParameters
                0x0000000020400f7c                InterruptRoutine
                0x0000000020400fa2                CPU_Pointers
                0x0000000020400fc8                Factorial
                0x0000000020401002                CPU_Recursion
 .text          0x000000002040104c       0xc4 CMakeFiles/sample.elf.dir/startup.c.obj
                0x000000002040104c                isr_synctrap
                0x000000002040106a                isr_empty
                0x0000000020401078                isr_vmsi
                0x0000000020401080                isr_vmti
                0x0000000020401088                isr_vmei
                0x0000000020401090                isr_irq0
                0x0000000020401098                isr_irq1
                0x00000000204010a0                isr_irq2
                0x00000000204010a8                isr_irq3
                0x00000000204010b0                isr_irq4
                0x00000000204010b8                isr_irq5
                0x00000000204010c0                isr_irq6
                0x00000000204010c8                isr_irq7
                0x00000000204010d0                isr_irq8
                0x00000000204010d8                isr_irq9
                0x00000000204010e0                isr_irq10
                0x00000000204010e8                isr_irq11
                0x00000000204010f0                isr_irq12
                0x00000000204010f8                isr_irq13
                0x0000000020401100                isr_irq14
                0x0000000020401108                isr_irq15
 .text          0x0000000020401110        0x0 CMakeFiles/sample.elf.dir/vector.s.obj
 .text          0x0000000020401110      0x324 c:/myx/sysgcc/bin/../lib/gcc/riscv64-unknown-elf/10.1.0/rv32imac/ilp32\libgcc.a(addsf3.o)
                0x0000000020401110                __addsf3
 .text          0x0000000020401434      0x21e c:/myx/sysgcc/bin/../lib/gcc/riscv64-unknown-elf/10.1.0/rv32imac/ilp32\libgcc.a(mulsf3.o)
                0x0000000020401434                __mulsf3
 .text          0x0000000020401652       0xba c:/myx/sysgcc/bin/../lib/gcc/riscv64-unknown-elf/10.1.0/rv32imac/ilp32\libgcc.a(floatsisf.o)
                0x0000000020401652                __floatsisf
 .text          0x000000002040170c       0x9a c:/myx/sysgcc/bin/../lib/gcc/riscv64-unknown-elf/10.1.0/rv32imac/ilp32\libgcc.a(floatunsisf.o)
                0x000000002040170c                __floatunsisf
 .text          0x00000000204017a6       0x3c c:/myx/sysgcc/bin/../lib/gcc/riscv64-unknown-elf/10.1.0/rv32imac/ilp32\libgcc.a(_clzsi2.o)
                0x00000000204017a6                __clzsi2
 .text          0x00000000204017e2        0x0 c:/myx/sysgcc/bin/../lib/gcc/riscv64-unknown-elf/10.1.0/rv32imac/ilp32\libgcc.a(_clz.o)
 *(.rodata*)
 *fill*         0x00000000204017e2        0x2 
 .rodata        0x00000000204017e4        0x8 Common/CMakeFiles/Common.dir/test.c.obj
 .rodata        0x00000000204017ec       0x3c c:/myx/sysgcc/bin/../lib/gcc/riscv64-unknown-elf/10.1.0/rv32imac/ilp32\libgcc.a(mulsf3.o)
 .rodata        0x0000000020401828      0x100 c:/myx/sysgcc/bin/../lib/gcc/riscv64-unknown-elf/10.1.0/rv32imac/ilp32\libgcc.a(_clz.o)
                0x0000000020401828                __clz_tab
                0x0000000020401928                . = ALIGN (0x4)
                0x0000000020401928                _end_text = .
                0x0000000020401928                _stored_data = .

.rela.dyn       0x0000000020401928        0x0
 .rela.init     0x0000000020401928        0x0 Common/CMakeFiles/Common.dir/main.c.obj

.data           0x0000000080000000        0x4 load address 0x0000000020401928
                0x0000000080000000                . = ALIGN (0x4)
                0x0000000080000000                _start_data = .
 *(.data .data*)
 .data          0x0000000080000000        0x0 Common/CMakeFiles/Common.dir/main.c.obj
 .data          0x0000000080000000        0x0 Common/CMakeFiles/Common.dir/test.c.obj
 .data          0x0000000080000000        0x0 CMakeFiles/sample.elf.dir/startup.c.obj
 .data          0x0000000080000000        0x0 CMakeFiles/sample.elf.dir/vector.s.obj
 .data          0x0000000080000000        0x0 c:/myx/sysgcc/bin/../lib/gcc/riscv64-unknown-elf/10.1.0/rv32imac/ilp32\libgcc.a(addsf3.o)
 .data          0x0000000080000000        0x0 c:/myx/sysgcc/bin/../lib/gcc/riscv64-unknown-elf/10.1.0/rv32imac/ilp32\libgcc.a(mulsf3.o)
 .data          0x0000000080000000        0x0 c:/myx/sysgcc/bin/../lib/gcc/riscv64-unknown-elf/10.1.0/rv32imac/ilp32\libgcc.a(floatsisf.o)
 .data          0x0000000080000000        0x0 c:/myx/sysgcc/bin/../lib/gcc/riscv64-unknown-elf/10.1.0/rv32imac/ilp32\libgcc.a(floatunsisf.o)
 .data          0x0000000080000000        0x0 c:/myx/sysgcc/bin/../lib/gcc/riscv64-unknown-elf/10.1.0/rv32imac/ilp32\libgcc.a(_clzsi2.o)
 .data          0x0000000080000000        0x0 c:/myx/sysgcc/bin/../lib/gcc/riscv64-unknown-elf/10.1.0/rv32imac/ilp32\libgcc.a(_clz.o)
                0x0000000080000000                . = ALIGN (0x8)
                0x0000000080000800                _global_pointer = (. + 0x800)
                0x0000000080000800                __global_pointer$ = (. + 0x800)
                0x0000000080000800                __global_pointer = (. + 0x800)
 *(.sdata*)
 .sdata         0x0000000080000000        0x4 CMakeFiles/sample.elf.dir/startup.c.obj
                0x0000000080000004                . = ALIGN (0x4)
                0x0000000080000004                _end_data = .
                0x0000000080000004                _edata = .

.bss            0x0000000080000004        0xc load address 0x000000002040192c
                0x0000000080000004                . = ALIGN (0x4)
                0x0000000080000004                _start_bss = .
 *(.bss*)
 .bss           0x0000000080000004        0x0 Common/CMakeFiles/Common.dir/main.c.obj
 .bss           0x0000000080000004        0x4 Common/CMakeFiles/Common.dir/test.c.obj
 .bss           0x0000000080000008        0x8 CMakeFiles/sample.elf.dir/startup.c.obj
 .bss           0x0000000080000010        0x0 CMakeFiles/sample.elf.dir/vector.s.obj
 .bss           0x0000000080000010        0x0 c:/myx/sysgcc/bin/../lib/gcc/riscv64-unknown-elf/10.1.0/rv32imac/ilp32\libgcc.a(addsf3.o)
 .bss           0x0000000080000010        0x0 c:/myx/sysgcc/bin/../lib/gcc/riscv64-unknown-elf/10.1.0/rv32imac/ilp32\libgcc.a(mulsf3.o)
 .bss           0x0000000080000010        0x0 c:/myx/sysgcc/bin/../lib/gcc/riscv64-unknown-elf/10.1.0/rv32imac/ilp32\libgcc.a(floatsisf.o)
 .bss           0x0000000080000010        0x0 c:/myx/sysgcc/bin/../lib/gcc/riscv64-unknown-elf/10.1.0/rv32imac/ilp32\libgcc.a(floatunsisf.o)
 .bss           0x0000000080000010        0x0 c:/myx/sysgcc/bin/../lib/gcc/riscv64-unknown-elf/10.1.0/rv32imac/ilp32\libgcc.a(_clzsi2.o)
 .bss           0x0000000080000010        0x0 c:/myx/sysgcc/bin/../lib/gcc/riscv64-unknown-elf/10.1.0/rv32imac/ilp32\libgcc.a(_clz.o)
 *(COMMON)
                0x0000000080000010                . = ALIGN (0x4)
                0x0000000080000010                _end_bss = .
                0x0000000080000010                _end = .
                [!provide]                        PROVIDE (_start_heap = _end)
                0x0000000080003c00                PROVIDE (_end_stack = (ORIGIN (RAM) + (LENGTH (RAM) - 0x400)))
OUTPUT(sample.elf elf32-littleriscv)

.sbss           0x0000000080000010        0xc load address 0x0000000020401938
 .sbss          0x0000000080000010        0xc Common/CMakeFiles/Common.dir/main.c.obj
                0x0000000080000010                byTestByte
                0x0000000080000012                wTestWord
                0x0000000080000014                iCounter
                0x0000000080000018                iInterruptCounter

.debug_info     0x0000000000000000     0x1812
 .debug_info    0x0000000000000000       0x99 Common/CMakeFiles/Common.dir/main.c.obj
 .debug_info    0x0000000000000099      0x74e Common/CMakeFiles/Common.dir/test.c.obj
 .debug_info    0x00000000000007e7      0x2b5 CMakeFiles/sample.elf.dir/startup.c.obj
 .debug_info    0x0000000000000a9c       0x26 CMakeFiles/sample.elf.dir/vector.s.obj
 .debug_info    0x0000000000000ac2      0x33c c:/myx/sysgcc/bin/../lib/gcc/riscv64-unknown-elf/10.1.0/rv32imac/ilp32\libgcc.a(addsf3.o)
 .debug_info    0x0000000000000dfe      0x394 c:/myx/sysgcc/bin/../lib/gcc/riscv64-unknown-elf/10.1.0/rv32imac/ilp32\libgcc.a(mulsf3.o)
 .debug_info    0x0000000000001192      0x23c c:/myx/sysgcc/bin/../lib/gcc/riscv64-unknown-elf/10.1.0/rv32imac/ilp32\libgcc.a(floatsisf.o)
 .debug_info    0x00000000000013ce      0x229 c:/myx/sysgcc/bin/../lib/gcc/riscv64-unknown-elf/10.1.0/rv32imac/ilp32\libgcc.a(floatunsisf.o)
 .debug_info    0x00000000000015f7      0x144 c:/myx/sysgcc/bin/../lib/gcc/riscv64-unknown-elf/10.1.0/rv32imac/ilp32\libgcc.a(_clzsi2.o)
 .debug_info    0x000000000000173b       0xd7 c:/myx/sysgcc/bin/../lib/gcc/riscv64-unknown-elf/10.1.0/rv32imac/ilp32\libgcc.a(_clz.o)

.debug_abbrev   0x0000000000000000      0xaa7
 .debug_abbrev  0x0000000000000000       0x59 Common/CMakeFiles/Common.dir/main.c.obj
 .debug_abbrev  0x0000000000000059      0x273 Common/CMakeFiles/Common.dir/test.c.obj
 .debug_abbrev  0x00000000000002cc       0xad CMakeFiles/sample.elf.dir/startup.c.obj
 .debug_abbrev  0x0000000000000379       0x14 CMakeFiles/sample.elf.dir/vector.s.obj
 .debug_abbrev  0x000000000000038d      0x161 c:/myx/sysgcc/bin/../lib/gcc/riscv64-unknown-elf/10.1.0/rv32imac/ilp32\libgcc.a(addsf3.o)
 .debug_abbrev  0x00000000000004ee      0x166 c:/myx/sysgcc/bin/../lib/gcc/riscv64-unknown-elf/10.1.0/rv32imac/ilp32\libgcc.a(mulsf3.o)
 .debug_abbrev  0x0000000000000654      0x184 c:/myx/sysgcc/bin/../lib/gcc/riscv64-unknown-elf/10.1.0/rv32imac/ilp32\libgcc.a(floatsisf.o)
 .debug_abbrev  0x00000000000007d8      0x195 c:/myx/sysgcc/bin/../lib/gcc/riscv64-unknown-elf/10.1.0/rv32imac/ilp32\libgcc.a(floatunsisf.o)
 .debug_abbrev  0x000000000000096d       0xca c:/myx/sysgcc/bin/../lib/gcc/riscv64-unknown-elf/10.1.0/rv32imac/ilp32\libgcc.a(_clzsi2.o)
 .debug_abbrev  0x0000000000000a37       0x70 c:/myx/sysgcc/bin/../lib/gcc/riscv64-unknown-elf/10.1.0/rv32imac/ilp32\libgcc.a(_clz.o)

.debug_aranges  0x0000000000000000      0x140
 .debug_aranges
                0x0000000000000000       0x20 Common/CMakeFiles/Common.dir/main.c.obj
 .debug_aranges
                0x0000000000000020       0x20 Common/CMakeFiles/Common.dir/test.c.obj
 .debug_aranges
                0x0000000000000040       0x28 CMakeFiles/sample.elf.dir/startup.c.obj
 .debug_aranges
                0x0000000000000068       0x20 CMakeFiles/sample.elf.dir/vector.s.obj
 .debug_aranges
                0x0000000000000088       0x20 c:/myx/sysgcc/bin/../lib/gcc/riscv64-unknown-elf/10.1.0/rv32imac/ilp32\libgcc.a(addsf3.o)
 .debug_aranges
                0x00000000000000a8       0x20 c:/myx/sysgcc/bin/../lib/gcc/riscv64-unknown-elf/10.1.0/rv32imac/ilp32\libgcc.a(mulsf3.o)
 .debug_aranges
                0x00000000000000c8       0x20 c:/myx/sysgcc/bin/../lib/gcc/riscv64-unknown-elf/10.1.0/rv32imac/ilp32\libgcc.a(floatsisf.o)
 .debug_aranges
                0x00000000000000e8       0x20 c:/myx/sysgcc/bin/../lib/gcc/riscv64-unknown-elf/10.1.0/rv32imac/ilp32\libgcc.a(floatunsisf.o)
 .debug_aranges
                0x0000000000000108       0x20 c:/myx/sysgcc/bin/../lib/gcc/riscv64-unknown-elf/10.1.0/rv32imac/ilp32\libgcc.a(_clzsi2.o)
 .debug_aranges
                0x0000000000000128       0x18 c:/myx/sysgcc/bin/../lib/gcc/riscv64-unknown-elf/10.1.0/rv32imac/ilp32\libgcc.a(_clz.o)

.debug_line     0x0000000000000000     0x284e
 .debug_line    0x0000000000000000      0x129 Common/CMakeFiles/Common.dir/main.c.obj
 .debug_line    0x0000000000000129      0x7c3 Common/CMakeFiles/Common.dir/test.c.obj
 .debug_line    0x00000000000008ec      0x30d CMakeFiles/sample.elf.dir/startup.c.obj
 .debug_line    0x0000000000000bf9      0x297 CMakeFiles/sample.elf.dir/vector.s.obj
 .debug_line    0x0000000000000e90      0xa49 c:/myx/sysgcc/bin/../lib/gcc/riscv64-unknown-elf/10.1.0/rv32imac/ilp32\libgcc.a(addsf3.o)
 .debug_line    0x00000000000018d9      0x76a c:/myx/sysgcc/bin/../lib/gcc/riscv64-unknown-elf/10.1.0/rv32imac/ilp32\libgcc.a(mulsf3.o)
 .debug_line    0x0000000000002043      0x351 c:/myx/sysgcc/bin/../lib/gcc/riscv64-unknown-elf/10.1.0/rv32imac/ilp32\libgcc.a(floatsisf.o)
 .debug_line    0x0000000000002394      0x352 c:/myx/sysgcc/bin/../lib/gcc/riscv64-unknown-elf/10.1.0/rv32imac/ilp32\libgcc.a(floatunsisf.o)
 .debug_line    0x00000000000026e6       0xfa c:/myx/sysgcc/bin/../lib/gcc/riscv64-unknown-elf/10.1.0/rv32imac/ilp32\libgcc.a(_clzsi2.o)
 .debug_line    0x00000000000027e0       0x6e c:/myx/sysgcc/bin/../lib/gcc/riscv64-unknown-elf/10.1.0/rv32imac/ilp32\libgcc.a(_clz.o)

.debug_str      0x0000000000000000      0xa52
 .debug_str     0x0000000000000000      0x13b Common/CMakeFiles/Common.dir/main.c.obj
 .debug_str     0x000000000000013b      0x1ba Common/CMakeFiles/Common.dir/test.c.obj
                                        0x2ed (size before relaxing)
 .debug_str     0x00000000000002f5      0x1d6 CMakeFiles/sample.elf.dir/startup.c.obj
                                        0x2d5 (size before relaxing)
 .debug_str     0x00000000000004cb       0x4a CMakeFiles/sample.elf.dir/vector.s.obj
                                         0x85 (size before relaxing)
 .debug_str     0x0000000000000515      0x288 c:/myx/sysgcc/bin/../lib/gcc/riscv64-unknown-elf/10.1.0/rv32imac/ilp32\libgcc.a(addsf3.o)
                                        0x308 (size before relaxing)
 .debug_str     0x000000000000079d      0x145 c:/myx/sysgcc/bin/../lib/gcc/riscv64-unknown-elf/10.1.0/rv32imac/ilp32\libgcc.a(mulsf3.o)
                                        0x32d (size before relaxing)
 .debug_str     0x00000000000008e2       0x8c c:/myx/sysgcc/bin/../lib/gcc/riscv64-unknown-elf/10.1.0/rv32imac/ilp32\libgcc.a(floatsisf.o)
                                        0x2d3 (size before relaxing)
 .debug_str     0x000000000000096e       0x5b c:/myx/sysgcc/bin/../lib/gcc/riscv64-unknown-elf/10.1.0/rv32imac/ilp32\libgcc.a(floatunsisf.o)
                                        0x2d0 (size before relaxing)
 .debug_str     0x00000000000009c9       0x89 c:/myx/sysgcc/bin/../lib/gcc/riscv64-unknown-elf/10.1.0/rv32imac/ilp32\libgcc.a(_clzsi2.o)
                                        0x24e (size before relaxing)
 .debug_str     0x0000000000000a52      0x231 c:/myx/sysgcc/bin/../lib/gcc/riscv64-unknown-elf/10.1.0/rv32imac/ilp32\libgcc.a(_clz.o)

.comment        0x0000000000000000       0x12
 .comment       0x0000000000000000       0x12 Common/CMakeFiles/Common.dir/main.c.obj
                                         0x13 (size before relaxing)
 .comment       0x0000000000000012       0x13 Common/CMakeFiles/Common.dir/test.c.obj
 .comment       0x0000000000000012       0x13 CMakeFiles/sample.elf.dir/startup.c.obj
 .comment       0x0000000000000012       0x13 c:/myx/sysgcc/bin/../lib/gcc/riscv64-unknown-elf/10.1.0/rv32imac/ilp32\libgcc.a(addsf3.o)
 .comment       0x0000000000000012       0x13 c:/myx/sysgcc/bin/../lib/gcc/riscv64-unknown-elf/10.1.0/rv32imac/ilp32\libgcc.a(mulsf3.o)
 .comment       0x0000000000000012       0x13 c:/myx/sysgcc/bin/../lib/gcc/riscv64-unknown-elf/10.1.0/rv32imac/ilp32\libgcc.a(floatsisf.o)
 .comment       0x0000000000000012       0x13 c:/myx/sysgcc/bin/../lib/gcc/riscv64-unknown-elf/10.1.0/rv32imac/ilp32\libgcc.a(floatunsisf.o)
 .comment       0x0000000000000012       0x13 c:/myx/sysgcc/bin/../lib/gcc/riscv64-unknown-elf/10.1.0/rv32imac/ilp32\libgcc.a(_clzsi2.o)
 .comment       0x0000000000000012       0x13 c:/myx/sysgcc/bin/../lib/gcc/riscv64-unknown-elf/10.1.0/rv32imac/ilp32\libgcc.a(_clz.o)

.riscv.attributes
                0x0000000000000000       0x2b
 .riscv.attributes
                0x0000000000000000       0x2b Common/CMakeFiles/Common.dir/main.c.obj
 .riscv.attributes
                0x000000000000002b       0x2b Common/CMakeFiles/Common.dir/test.c.obj
 .riscv.attributes
                0x0000000000000056       0x2b CMakeFiles/sample.elf.dir/startup.c.obj
 .riscv.attributes
                0x0000000000000081       0x29 CMakeFiles/sample.elf.dir/vector.s.obj
 .riscv.attributes
                0x00000000000000aa       0x2b c:/myx/sysgcc/bin/../lib/gcc/riscv64-unknown-elf/10.1.0/rv32imac/ilp32\libgcc.a(addsf3.o)
 .riscv.attributes
                0x00000000000000d5       0x2b c:/myx/sysgcc/bin/../lib/gcc/riscv64-unknown-elf/10.1.0/rv32imac/ilp32\libgcc.a(mulsf3.o)
 .riscv.attributes
                0x0000000000000100       0x2b c:/myx/sysgcc/bin/../lib/gcc/riscv64-unknown-elf/10.1.0/rv32imac/ilp32\libgcc.a(floatsisf.o)
 .riscv.attributes
                0x000000000000012b       0x2b c:/myx/sysgcc/bin/../lib/gcc/riscv64-unknown-elf/10.1.0/rv32imac/ilp32\libgcc.a(floatunsisf.o)
 .riscv.attributes
                0x0000000000000156       0x2b c:/myx/sysgcc/bin/../lib/gcc/riscv64-unknown-elf/10.1.0/rv32imac/ilp32\libgcc.a(_clzsi2.o)
 .riscv.attributes
                0x0000000000000181       0x2b c:/myx/sysgcc/bin/../lib/gcc/riscv64-unknown-elf/10.1.0/rv32imac/ilp32\libgcc.a(_clz.o)

.debug_frame    0x0000000000000000      0x730
 .debug_frame   0x0000000000000000       0x2c Common/CMakeFiles/Common.dir/main.c.obj
 .debug_frame   0x000000000000002c      0x374 Common/CMakeFiles/Common.dir/test.c.obj
 .debug_frame   0x00000000000003a0      0x27c CMakeFiles/sample.elf.dir/startup.c.obj
 .debug_frame   0x000000000000061c       0x40 c:/myx/sysgcc/bin/../lib/gcc/riscv64-unknown-elf/10.1.0/rv32imac/ilp32\libgcc.a(addsf3.o)
 .debug_frame   0x000000000000065c       0x48 c:/myx/sysgcc/bin/../lib/gcc/riscv64-unknown-elf/10.1.0/rv32imac/ilp32\libgcc.a(mulsf3.o)
 .debug_frame   0x00000000000006a4       0x38 c:/myx/sysgcc/bin/../lib/gcc/riscv64-unknown-elf/10.1.0/rv32imac/ilp32\libgcc.a(floatsisf.o)
 .debug_frame   0x00000000000006dc       0x34 c:/myx/sysgcc/bin/../lib/gcc/riscv64-unknown-elf/10.1.0/rv32imac/ilp32\libgcc.a(floatunsisf.o)
 .debug_frame   0x0000000000000710       0x20 c:/myx/sysgcc/bin/../lib/gcc/riscv64-unknown-elf/10.1.0/rv32imac/ilp32\libgcc.a(_clzsi2.o)

.debug_ranges   0x0000000000000000      0x2e8
 .debug_ranges  0x0000000000000000       0x18 CMakeFiles/sample.elf.dir/startup.c.obj
 .debug_ranges  0x0000000000000018      0x168 c:/myx/sysgcc/bin/../lib/gcc/riscv64-unknown-elf/10.1.0/rv32imac/ilp32\libgcc.a(addsf3.o)
 .debug_ranges  0x0000000000000180       0xa8 c:/myx/sysgcc/bin/../lib/gcc/riscv64-unknown-elf/10.1.0/rv32imac/ilp32\libgcc.a(mulsf3.o)
 .debug_ranges  0x0000000000000228       0x50 c:/myx/sysgcc/bin/../lib/gcc/riscv64-unknown-elf/10.1.0/rv32imac/ilp32\libgcc.a(floatsisf.o)
 .debug_ranges  0x0000000000000278       0x50 c:/myx/sysgcc/bin/../lib/gcc/riscv64-unknown-elf/10.1.0/rv32imac/ilp32\libgcc.a(floatunsisf.o)
 .debug_ranges  0x00000000000002c8       0x20 c:/myx/sysgcc/bin/../lib/gcc/riscv64-unknown-elf/10.1.0/rv32imac/ilp32\libgcc.a(_clzsi2.o)

.debug_loc      0x0000000000000000     0x124e
 .debug_loc     0x0000000000000000      0x909 c:/myx/sysgcc/bin/../lib/gcc/riscv64-unknown-elf/10.1.0/rv32imac/ilp32\libgcc.a(addsf3.o)
 .debug_loc     0x0000000000000909      0x5e4 c:/myx/sysgcc/bin/../lib/gcc/riscv64-unknown-elf/10.1.0/rv32imac/ilp32\libgcc.a(mulsf3.o)
 .debug_loc     0x0000000000000eed      0x191 c:/myx/sysgcc/bin/../lib/gcc/riscv64-unknown-elf/10.1.0/rv32imac/ilp32\libgcc.a(floatsisf.o)
 .debug_loc     0x000000000000107e      0x165 c:/myx/sysgcc/bin/../lib/gcc/riscv64-unknown-elf/10.1.0/rv32imac/ilp32\libgcc.a(floatunsisf.o)
 .debug_loc     0x00000000000011e3       0x6b c:/myx/sysgcc/bin/../lib/gcc/riscv64-unknown-elf/10.1.0/rv32imac/ilp32\libgcc.a(_clzsi2.o)
